; Function Attrs: nounwind uwtable
define internal range(i32 -22, 1) i32 @config_input_impulse(ptr noundef readonly captures(none) %0) #0 {
  %2 = getelementptr inbounds nuw i8, ptr %0, i64 16
  %3 = load ptr, ptr %2, align 8, !tbaa !37
  %4 = getelementptr inbounds nuw i8, ptr %3, i64 32
  %5 = load ptr, ptr %4, align 8, !tbaa !60
  %6 = load ptr, ptr %5, align 8, !tbaa !61
  %7 = getelementptr inbounds nuw i8, ptr %6, i64 40
  %8 = load i32, ptr %7, align 8, !tbaa !45
  %9 = getelementptr inbounds nuw i8, ptr %5, i64 8
  %10 = load ptr, ptr %9, align 8, !tbaa !61
  %11 = getelementptr inbounds nuw i8, ptr %10, i64 40
  %12 = load i32, ptr %11, align 8, !tbaa !45
  %.not = icmp eq i32 %8, %12
  br i1 %.not, label %13, label %18

13:                                               ; preds = %1
  %14 = getelementptr inbounds nuw i8, ptr %6, i64 44
  %15 = load i32, ptr %14, align 4, !tbaa !46
  %16 = getelementptr inbounds nuw i8, ptr %10, i64 44
  %17 = load i32, ptr %16, align 4, !tbaa !46
  %.not6 = icmp eq i32 %15, %17
  br i1 %.not6, label %19, label %18

18:                                               ; preds = %13, %1
  tail call void (ptr, i32, ptr, ...) @av_log(ptr noundef nonnull %3, i32 noundef 16, ptr noundef nonnull @.str.8) #14
  br label %19

19:                                               ; preds = %13, %18
  %.0 = phi i32 [ -22, %18 ], [ 0, %13 ]
  ret i32 %.0
}